(dp1
S'a0fa6331afb21c20163b4e784710aced8238df71'
p2
(idevice
device
p3
(dp4
S'status'
p5
I0
sS'queue'
p6
ccollections
deque
p7
((ltRp8
sS'name'
p9
S'iPhone 5S'
p10
sS'UDID'
p11
g2
sS'IP'
p12
V192.168.1.43
p13
sS'customName'
p14
S''
sS'OS'
p15
S'9.3.2'
p16
sS'pushMagic'
p17
S'1C579C34-4B0A-48D7-BA65-44A25BD23CC5'
p18
sS'last_command_queue'
p19
g7
((ltRp20
sS'unlockToken'
p21
S'DATA\x00\x00\x04\xe4VERS\x00\x00\x00\x04\x00\x00\x00\x04TYPE\x00\x00\x00\x04\x00\x00\x00\x02UUID\x00\x00\x00\x10\x9cU\x03\x82A\xb7L\x04\xa3\xca\x11f\xee\xee$\xf8HMCK\x00\x00\x00(8\x93\xbf\x11u\xb4\x1c\xa7\x19\rs\xbb\x90]\xe0\x7f\xfc\xdb\x96\xa0JxF`\xc7*\xd8\x16\xc3\xf3\xa8\xf0S\x98\xb69\xd4)y4WRAP\x00\x00\x00\x04\x00\x00\x00\x01SALT\x00\x00\x00\x14b\xc0\x00\xcf\x94\xf9\xb0\x10#3\x12h\xdc\xd4l\x8e\xf8`\x8f\xa7ITER\x00\x00\x00\x04\x00\x00\xc3PUUID\x00\x00\x00\x10\xdd2\x1a\xe5\x91\xd5F\xde\xb2\x14g\xd1YA\xee\xe2CLAS\x00\x00\x00\x04\x00\x00\x00\x0bWRAP\x00\x00\x00\x04\x00\x00\x00\x01KTYP\x00\x00\x00\x04\x00\x00\x00\x00WPKY\x00\x00\x00 }\xb5\xed \xb7\xb3cA\xc6\xe7\xcf\x7f\xcc\xcb:\xfbM=b*\r\x12z=\xf0\xaf\xf4\xf9nH8\xc3UUID\x00\x00\x00\x10\x1c\xcb\xd8\x08\x80.K\xb1\xb0W\xb8\x8cP\x81\rNCLAS\x00\x00\x00\x04\x00\x00\x00\nWRAP\x00\x00\x00\x04\x00\x00\x00\x03KTYP\x00\x00\x00\x04\x00\x00\x00\x00WPKY\x00\x00\x00(ya(O~\xbaw\xceP\'}\x9cVSbS\x05\xdd\xa73\xb543\x9a\xd9\x1d\x9e\xfa\x8baj\x93\xa02Q\xf1#\xb2,:UUID\x00\x00\x00\x10_\xc5\xc67_\xdbK\x1b\xb1\xc3r\xe8\x84\xad\x07\xe5CLAS\x00\x00\x00\x04\x00\x00\x00\tWRAP\x00\x00\x00\x04\x00\x00\x00\x03KTYP\x00\x00\x00\x04\x00\x00\x00\x00WPKY\x00\x00\x00(\xdd\xf9\x1c\xd6O\x87\xda\xd6\xc3\xd5\x82\xbb\x12FG\x98\x03)-\xab\xaa\xfc\xaaRk\xa7\xb1\xc1\xdf\xafBx\x0f\x91XlcY\xd8\xe7UUID\x00\x00\x00\x10[\xa5\x15g\x03O@\x95\xac\xcf\x82#ZfgBCLAS\x00\x00\x00\x04\x00\x00\x00\x08WRAP\x00\x00\x00\x04\x00\x00\x00\x01KTYP\x00\x00\x00\x04\x00\x00\x00\x00WPKY\x00\x00\x00 p\x04\x0b\x8b\x91\xd8J\x8d\x93\xdbS#\xa4\x90y\x0e\xc2m\xef\xee>\xab\xda\xf8z-\x01\xd9\xee]\xcb\xd9UUID\x00\x00\x00\x10\x03\n\x8d\xb6^\xc4D\x1a\xa9\x8c?2v![\xf2CLAS\x00\x00\x00\x04\x00\x00\x00\x07WRAP\x00\x00\x00\x04\x00\x00\x00\x03KTYP\x00\x00\x00\x04\x00\x00\x00\x00WPKY\x00\x00\x00(\x92\xd0\x8e\xf1\xb7\xcb\x13\xc9\xc6\xfa\x89w\x8b\t[L\xad\xe3\xf8\xa5/\x0c\xaf.\xdb\xbd\xe0\xcaYV\x8a\xe31\xeb\xdf\xfb\xe6\xb6\x07\x82UUID\x00\x00\x00\x10\xbd\x80,z5\xbcL\x19\x8c$\xfdVH\xe7D\x1eCLAS\x00\x00\x00\x04\x00\x00\x00\x06WRAP\x00\x00\x00\x04\x00\x00\x00\x03KTYP\x00\x00\x00\x04\x00\x00\x00\x00WPKY\x00\x00\x00(\x08:\x17\'X)\xa2[\xf1\x07B\'\xe8\x18\x99\xbeX\x0bt\x0b#R\x8a\xb5\xb7\xa4\xf0a\xd8\xc7\x83\x7f\x8c\xb0\xebc\xe1\xdc\x9b:UUID\x00\x00\x00\x10F\x85\xcc4\x1a\xdfM\xbb\x8e\xb2\xc5\xa0\xf4],zCLAS\x00\x00\x00\x04\x00\x00\x00\x05WRAP\x00\x00\x00\x04\x00\x00\x00\x03KTYP\x00\x00\x00\x04\x00\x00\x00\x00WPKY\x00\x00\x00(4J\x1a\x1c\x07\x84\xf0.X1p\x8e\x9cm\xdc\xcd\x93\x98\xb8E\xc2-Jf\x9c\x9ddz3\xe5\x8c\x07\xb2w3\x9a@*I"UUID\x00\x00\x00\x10Kr\x8d\xb4\x16\x04G\xc2\xa5\xc3\xba\xdfd\x9f\xe4\x0cCLAS\x00\x00\x00\x04\x00\x00\x00\x03WRAP\x00\x00\x00\x04\x00\x00\x00\x03KTYP\x00\x00\x00\x04\x00\x00\x00\x00WPKY\x00\x00\x00(\xe7\x07\xc1\x7f\x82\x8a\x054\x16\x85\x0c\x7f\xfa\x98\x9e\xa8!\xd91\x98x\xbdA\xe7\xe0(\xe4\xfe\xdb\x8f\x8d\xc499\x15w\xb3\x0f\xebbUUID\x00\x00\x00\x10\r\xd2\x1c\xce\xaa\xadMq\x87\x86\xc2)\x1d\xe3]\xd7CLAS\x00\x00\x00\x04\x00\x00\x00\x02WRAP\x00\x00\x00\x04\x00\x00\x00\x03KTYP\x00\x00\x00\x04\x00\x00\x00\x01WPKY\x00\x00\x00(\xc1\x1d\xf2\xefCR\x95\x89^\xb0\x03;\x8a2p\xd0\xc4\x82\xae\xdfyX5\xd33\x8c`w\xbb,\'$|C\xcb\xdc\xbb\xe1\xd8CPBKY\x00\x00\x00 \xd6t\x05\xc0i\xca\xff\xfdG\xab\x1e\x18\x86\xcd\xece\xa6\xa8l:\xb5l\x1d\x99\n\x1f\xf1}GV\xd8[UUID\x00\x00\x00\x10n\xc7\xcc\xe6\x92\xd9I\x88\xb3.\xc0\x91\xd3\\\xf9\x84CLAS\x00\x00\x00\x04\x00\x00\x00\x01WRAP\x00\x00\x00\x04\x00\x00\x00\x03KTYP\x00\x00\x00\x04\x00\x00\x00\x00WPKY\x00\x00\x00(b7\x92\xe3\x92\xef`\xbe\x02s\xff\x8bK\xe5_F\xba\xf3\xed\xe9\xfbp\x91\xb5\x94\xab\xf3\x7f2\xaa6\xad\xe5\x9a\xcb\x1f\x99xw\xd5SIGN\x00\x00\x00\x14\xee1\xcb.\x16d\xc4\x80\xc9=z@l\xf8\xb5\x95!F/E'
p22
sS'location'
p23
S'Unassigned'
p24
sS'cmdList'
p25
(dp26
S'2b740381-750d-43c3-9bc3-7fb4a6d5770d'
p27
(dp28
g5
S'success'
p29
sS'cmd'
p30
(dp31
S'CommandUUID'
p32
g27
sS'Command'
p33
(dp34
S'RequestType'
p35
S'InstallProfile'
p36
sS'Payload'
p37
(iplistlib
Data
p38
(dp39
S'data'
p40
S'<?xml version="1.0" encoding="UTF-8"?>\n<!DOCTYPE plist PUBLIC "-//Apple//DTD PLIST 1.0//EN" "http://www.apple.com/DTDs/PropertyList-1.0.dtd">\n<plist version="1.0">\n<dict>\n\t<key>PayloadContent</key>\n\t<array>\n\t\t<dict>\n\t\t\t<key>PayloadDescription</key>\n\t\t\t<string>Configures device restrictions.</string>\n\t\t\t<key>PayloadDisplayName</key>\n\t\t\t<string>Restrictions</string>\n\t\t\t<key>PayloadIdentifier</key>\n\t\t\t<string>com.intrepidusgroup.djs.test.simple.restrictions</string>\n\t\t\t<key>PayloadOrganization</key>\n\t\t\t<string></string>\n\t\t\t<key>PayloadType</key>\n\t\t\t<string>com.apple.applicationaccess</string>\n\t\t\t<key>PayloadUUID</key>\n\t\t\t<string>77D2FFB1-C010-4220-A3D9-BFE4B3EF99FD</string>\n\t\t\t<key>PayloadVersion</key>\n\t\t\t<integer>1</integer>\n\t\t\t<key>allowAddingGameCenterFriends</key>\n\t\t\t<true/>\n\t\t\t<key>allowAppInstallation</key>\n\t\t\t<true/>\n\t\t\t<key>allowCamera</key>\n\t\t\t<true/>\n\t\t\t<key>allowExplicitContent</key>\n\t\t\t<true/>\n\t\t\t<key>allowGlobalBackgroundFetchWhenRoaming</key>\n\t\t\t<true/>\n\t\t\t<key>allowInAppPurchases</key>\n\t\t\t<true/>\n\t\t\t<key>allowMultiplayerGaming</key>\n\t\t\t<true/>\n\t\t\t<key>allowSafari</key>\n\t\t\t<true/>\n\t\t\t<key>allowScreenShot</key>\n\t\t\t<false/>\n\t\t\t<key>allowVideoConferencing</key>\n\t\t\t<true/>\n\t\t\t<key>allowVoiceDialing</key>\n\t\t\t<true/>\n\t\t\t<key>allowYouTube</key>\n\t\t\t<true/>\n\t\t\t<key>allowiTunes</key>\n\t\t\t<true/>\n\t\t\t<key>forceEncryptedBackup</key>\n\t\t\t<false/>\n\t\t\t<key>ratingApps</key>\n\t\t\t<integer>0</integer>\n\t\t\t<key>ratingMovies</key>\n\t\t\t<integer>1000</integer>\n\t\t\t<key>ratingRegion</key>\n\t\t\t<string>us</string>\n\t\t\t<key>ratingTVShows</key>\n\t\t\t<integer>1000</integer>\n\t\t</dict>\n\t</array>\n\t<key>PayloadDescription</key>\n\t<string>Very simple profile to test restrictions.</string>\n\t<key>PayloadDisplayName</key>\n\t<string>Very Simple Restriction Test</string>\n\t<key>PayloadIdentifier</key>\n\t<string>com.intrepidusgroup.djs.test.simple</string>\n\t<key>PayloadOrganization</key>\n\t<string></string>\n\t<key>PayloadRemovalDisallowed</key>\n\t<false/>\n\t<key>PayloadType</key>\n\t<string>Configuration</string>\n\t<key>PayloadUUID</key>\n\t<string>2D9490F4-E890-4B37-9062-7095FEF0E482</string>\n\t<key>PayloadVersion</key>\n\t<integer>1</integer>\n</dict>\n</plist>\n'
p41
sbssS'TimeStamp'
p42
F1472559514.080771
ssS'response'
p43
ccopy_reg
_reconstructor
p44
(cplistlib
_InternalDict
p45
c__builtin__
dict
p46
(dp47
S'Status'
p48
S'Acknowledged'
p49
sS'CommandUUID'
p50
S'2b740381-750d-43c3-9bc3-7fb4a6d5770d'
p51
sS'UDID'
p52
S'a0fa6331afb21c20163b4e784710aced8238df71'
p53
stRp54
sS'order'
p55
I17
ssS'e949f2f7-01c1-47f1-877e-ae4eb4aa87d3'
p56
(dp57
S'status'
p58
S'danger'
p59
sS'cmd'
p60
(dp61
S'CommandUUID'
p62
g56
sS'Command'
p63
(dp64
S'RequestType'
p65
S'InstallProfile'
p66
sS'Payload'
p67
(iplistlib
Data
p68
(dp69
g40
S'<?xml version="1.0" encoding="UTF-8"?>\n<!DOCTYPE plist PUBLIC "-//Apple//DTD PLIST 1.0//EN" "http://www.apple.com/DTDs/PropertyList-1.0.dtd">\n<plist version="1.0">\n<dict>\n\t<key>PayloadContent</key>\n\t<array>\n\t\t<dict>\n\t\t\t<key>PayloadDescription</key>\n\t\t\t<string>Configures device restrictions.</string>\n\t\t\t<key>PayloadDisplayName</key>\n\t\t\t<string>Restrictions</string>\n\t\t\t<key>PayloadIdentifier</key>\n\t\t\t<string>com.intrepidusgroup.djs.test.simple.restrictions</string>\n\t\t\t<key>PayloadOrganization</key>\n\t\t\t<string></string>\n\t\t\t<key>PayloadType</key>\n\t\t\t<string>com.apple.applicationaccess</string>\n\t\t\t<key>PayloadUUID</key>\n\t\t\t<string>77D2FFB1-C010-4220-A3D9-BFE4B3EF99FD</string>\n\t\t\t<key>PayloadVersion</key>\n\t\t\t<integer>1</integer>\n\t\t\t<key>allowAddingGameCenterFriends</key>\n\t\t\t<true/>\n\t\t\t<key>allowAppInstallation</key>\n\t\t\t<true/>\n\t\t\t<key>allowCamera</key>\n\t\t\t<true/>\n\t\t\t<key>allowExplicitContent</key>\n\t\t\t<true/>\n\t\t\t<key>allowGlobalBackgroundFetchWhenRoaming</key>\n\t\t\t<true/>\n\t\t\t<key>allowInAppPurchases</key>\n\t\t\t<true/>\n\t\t\t<key>allowMultiplayerGaming</key>\n\t\t\t<true/>\n\t\t\t<key>allowSafari</key>\n\t\t\t<true/>\n\t\t\t<key>allowScreenShot</key>\n\t\t\t<false/>\n\t\t\t<key>allowVideoConferencing</key>\n\t\t\t<true/>\n\t\t\t<key>allowVoiceDialing</key>\n\t\t\t<true/>\n\t\t\t<key>allowYouTube</key>\n\t\t\t<true/>\n\t\t\t<key>allowiTunes</key>\n\t\t\t<true/>\n\t\t\t<key>forceEncryptedBackup</key>\n\t\t\t<false/>\n\t\t\t<key>ratingApps</key>\n\t\t\t<integer>0</integer>\n\t\t\t<key>ratingMovies</key>\n\t\t\t<integer>1000</integer>\n\t\t\t<key>ratingRegion</key>\n\t\t\t<string>us</string>\n\t\t\t<key>ratingTVShows</key>\n\t\t\t<integer>1000</integer>\n\t\t</dict>\n\t</array>\n\t<key>PayloadDescription</key>\n\t<string>Very simple profile to test restrictions.</string>\n\t<key>PayloadDisplayName</key>\n\t<string>Very Simple Restriction Test</string>\n\t<key>PayloadIdentifier</key>\n\t<string>com.intrepidusgroup.djs.test.simple</string>\n\t<key>PayloadOrganization</key>\n\t<string></string>\n\t<key>PayloadRemovalDisallowed</key>\n\t<false/>\n\t<key>PayloadType</key>\n\t<string>Configuration</string>\n\t<key>PayloadUUID</key>\n\t<string>2D9490F4-E890-4B37-9062-7095FEF0E482</string>\n\t<key>PayloadVersion</key>\n\t<integer>1</integer>\n</dict>\n</plist>\n'
p70
sbssS'TimeStamp'
p71
F1472557822.451272
ssS'response'
p72
(dp73
S'Status'
p74
S'TimeoutError'
p75
ssS'order'
p76
I7
ssS'7778b901-e7fe-422f-8822-4aa4fbe5c392'
p77
(dp78
S'status'
p79
S'success'
p80
sS'cmd'
p81
(dp82
g62
g77
sg63
(dp83
g65
S'DeviceInformation'
p84
sS'Queries'
p85
(lp86
S'AvailableDeviceCapacity'
p87
aS'BluetoothMAC'
p88
aS'BuildVersion'
p89
aS'CarrierSettingsVersion'
p90
aS'CurrentCarrierNetwork'
p91
aS'CurrentMCC'
p92
aS'CurrentMNC'
p93
aS'DataRoamingEnabled'
p94
aS'DeviceCapacity'
p95
aS'DeviceName'
p96
aS'ICCID'
p97
aS'IMEI'
p98
aS'IsRoaming'
p99
aS'Model'
p100
aS'ModelName'
p101
aS'ModemFirmwareVersion'
p102
aS'OSVersion'
p103
aS'PhoneNumber'
p104
aS'Product'
p105
aS'ProductName'
p106
aS'SIMCarrierNetwork'
p107
aS'SIMMCC'
p108
aS'SIMMNC'
p109
aS'SerialNumber'
p110
aS'UDID'
p111
aS'WiFiMAC'
p112
ag111
aS'UnlockToken'
p113
aS'MEID'
p114
aS'CellularTechnology'
p115
aS'BatteryLevel'
p116
aS'SubscriberCarrierNetwork'
p117
aS'VoiceRoamingEnabled'
p118
aS'SubscriberMCC'
p119
aS'SubscriberMNC'
p120
aS'DataRoaming'
p121
aS'VoiceRoaming'
p122
aS'JailbreakDetected'
p123
assg71
F1472557550.2484169
ssS'response'
p124
g44
(g45
g46
(dp125
S'Status'
p126
S'Acknowledged'
p127
sS'CommandUUID'
p128
S'7778b901-e7fe-422f-8822-4aa4fbe5c392'
p129
sS'UDID'
p130
S'a0fa6331afb21c20163b4e784710aced8238df71'
p131
sS'QueryResponses'
p132
g44
(g45
g46
(dp133
S'CurrentMNC'
p134
S'037'
p135
sS'WiFiMAC'
p136
S'84:8e:0c:84:58:5f'
p137
sS'SerialNumber'
p138
S'F17LX4TVFF9R'
p139
sS'SIMCarrierNetwork'
p140
S'AirTel'
p141
sS'IMEI'
p142
S'01 384800 452680 9'
p143
sS'ModelName'
p144
S'iPhone'
p145
sS'CurrentMCC'
p146
S'405'
p147
sS'BuildVersion'
p148
S'13F69'
p149
sS'CellularTechnology'
p150
I1
sS'BatteryLevel'
p151
F0.20999999344348907
sS'SubscriberCarrierNetwork'
p152
S'AirTel'
p153
sS'Model'
p154
S'ME305LL'
p155
sS'DeviceName'
p156
g10
sS'OSVersion'
p157
g16
sS'AvailableDeviceCapacity'
p158
F7.5866279602050781
sS'DeviceCapacity'
p159
F11.917972564697266
sS'CarrierSettingsVersion'
p160
S'24.1'
p161
sS'UDID'
p162
S'a0fa6331afb21c20163b4e784710aced8238df71'
p163
sS'ModemFirmwareVersion'
p164
S'6.02.00'
p165
sS'BluetoothMAC'
p166
S'84:8e:0c:84:58:60'
p167
sS'IsRoaming'
p168
I01
sS'DataRoamingEnabled'
p169
I00
sS'ProductName'
p170
S'iPhone6,1'
p171
stRp172
stRp173
sS'order'
p174
I1
ssS'e6c8e4fb-335e-4977-a452-7a28b59c123a'
p175
(dp176
g5
g29
sg30
(dp177
g32
g175
sg33
(dp178
g35
S'RemoveProfile'
p179
sS'Identifier'
p180
S'com.intrepidusgroup.djs.test.simple'
p181
ssg42
F1472559556.9891951
ssg43
g44
(g45
g46
(dp182
S'Status'
p183
S'Acknowledged'
p184
sS'CommandUUID'
p185
S'e6c8e4fb-335e-4977-a452-7a28b59c123a'
p186
sS'UDID'
p187
S'a0fa6331afb21c20163b4e784710aced8238df71'
p188
stRp189
sg55
I18
ssS'67607c57-53a2-4b6d-87a0-e041ea343b50'
p190
(dp191
S'status'
p192
S'success'
p193
sS'cmd'
p194
(dp195
S'CommandUUID'
p196
g190
sS'Command'
p197
(dp198
S'RequestType'
p199
S'RemoveProfile'
p200
sS'Identifier'
p201
S'com.intrepidusgroup.djs.test.simple'
p202
ssS'TimeStamp'
p203
F1472558627.9524691
ssS'response'
p204
g44
(g45
g46
(dp205
S'Status'
p206
S'Acknowledged'
p207
sS'CommandUUID'
p208
S'67607c57-53a2-4b6d-87a0-e041ea343b50'
p209
sS'UDID'
p210
S'a0fa6331afb21c20163b4e784710aced8238df71'
p211
stRp212
sS'order'
p213
I10
ssS'9d914830-1d1b-4266-997f-cf64714cdfc9'
p214
(dp215
S'status'
p216
S'success'
p217
sS'cmd'
p218
(dp219
S'CommandUUID'
p220
S'f5a4c32c-b207-4f89-aa55-861260bce844'
p221
sS'Command'
p222
(dp223
S'RequestType'
p224
S'InstallProfile'
p225
sS'Payload'
p226
(iplistlib
Data
p227
(dp228
g40
S'<?xml version="1.0" encoding="UTF-8"?>\n<!DOCTYPE plist PUBLIC "-//Apple//DTD PLIST 1.0//EN" "http://www.apple.com/DTDs/PropertyList-1.0.dtd">\n<plist version="1.0">\n<dict>\n\t<key>PayloadContent</key>\n\t<array>\n\t\t<dict>\n\t\t\t<key>PayloadDescription</key>\n\t\t\t<string>Configures device restrictions.</string>\n\t\t\t<key>PayloadDisplayName</key>\n\t\t\t<string>Restrictions</string>\n\t\t\t<key>PayloadIdentifier</key>\n\t\t\t<string>com.intrepidusgroup.djs.test.simple.restrictions</string>\n\t\t\t<key>PayloadOrganization</key>\n\t\t\t<string></string>\n\t\t\t<key>PayloadType</key>\n\t\t\t<string>com.apple.applicationaccess</string>\n\t\t\t<key>PayloadUUID</key>\n\t\t\t<string>77D2FFB1-C010-4220-A3D9-BFE4B3EF99FD</string>\n\t\t\t<key>PayloadVersion</key>\n\t\t\t<integer>1</integer>\n\t\t\t<key>allowAddingGameCenterFriends</key>\n\t\t\t<true/>\n\t\t\t<key>allowAppInstallation</key>\n\t\t\t<true/>\n\t\t\t<key>allowCamera</key>\n\t\t\t<true/>\n\t\t\t<key>allowExplicitContent</key>\n\t\t\t<true/>\n\t\t\t<key>allowGlobalBackgroundFetchWhenRoaming</key>\n\t\t\t<true/>\n\t\t\t<key>allowInAppPurchases</key>\n\t\t\t<true/>\n\t\t\t<key>allowMultiplayerGaming</key>\n\t\t\t<true/>\n\t\t\t<key>allowSafari</key>\n\t\t\t<true/>\n\t\t\t<key>allowScreenShot</key>\n\t\t\t<false/>\n\t\t\t<key>allowVideoConferencing</key>\n\t\t\t<true/>\n\t\t\t<key>allowVoiceDialing</key>\n\t\t\t<true/>\n\t\t\t<key>allowYouTube</key>\n\t\t\t<true/>\n\t\t\t<key>allowiTunes</key>\n\t\t\t<true/>\n\t\t\t<key>forceEncryptedBackup</key>\n\t\t\t<false/>\n\t\t\t<key>ratingApps</key>\n\t\t\t<integer>0</integer>\n\t\t\t<key>ratingMovies</key>\n\t\t\t<integer>1000</integer>\n\t\t\t<key>ratingRegion</key>\n\t\t\t<string>us</string>\n\t\t\t<key>ratingTVShows</key>\n\t\t\t<integer>1000</integer>\n\t\t</dict>\n\t</array>\n\t<key>PayloadDescription</key>\n\t<string>Very simple profile to test restrictions.</string>\n\t<key>PayloadDisplayName</key>\n\t<string>Very Simple Restriction Test</string>\n\t<key>PayloadIdentifier</key>\n\t<string>com.intrepidusgroup.djs.test.simple</string>\n\t<key>PayloadOrganization</key>\n\t<string></string>\n\t<key>PayloadRemovalDisallowed</key>\n\t<false/>\n\t<key>PayloadType</key>\n\t<string>Configuration</string>\n\t<key>PayloadUUID</key>\n\t<string>2D9490F4-E890-4B37-9062-7095FEF0E482</string>\n\t<key>PayloadVersion</key>\n\t<integer>1</integer>\n</dict>\n</plist>\n'
p229
sbssS'TimeStamp'
p230
F1472559197.1079149
ssS'response'
p231
g44
(g45
g46
(dp232
S'Status'
p233
S'Acknowledged'
p234
sS'CommandUUID'
p235
S'9d914830-1d1b-4266-997f-cf64714cdfc9'
p236
sS'UDID'
p237
S'a0fa6331afb21c20163b4e784710aced8238df71'
p238
stRp239
sS'order'
p240
I13
ssS'09161be8-ef4e-428b-a35e-8be2e216e4a5'
p241
(dp242
g216
g217
sg218
(dp243
g220
g241
sg222
(dp244
g224
S'RemoveProfile'
p245
sS'Identifier'
p246
S'com.intrepidusgroup.djs.test.simple'
p247
ssg230
F1472559081.3062789
ssg231
g44
(g45
g46
(dp248
S'Status'
p249
S'Acknowledged'
p250
sS'CommandUUID'
p251
S'09161be8-ef4e-428b-a35e-8be2e216e4a5'
p252
sS'UDID'
p253
S'a0fa6331afb21c20163b4e784710aced8238df71'
p254
stRp255
sg240
I14
ssS'b03b0cc5-667d-4c2a-a7a0-7ba4e2399531'
p256
(dp257
g216
g217
sg218
g243
sg231
g44
(g45
g46
(dp258
S'Status'
p259
S'Acknowledged'
p260
sS'CommandUUID'
p261
S'b03b0cc5-667d-4c2a-a7a0-7ba4e2399531'
p262
sS'UDID'
p263
S'a0fa6331afb21c20163b4e784710aced8238df71'
p264
stRp265
sg240
I12
ssS'65c1b19c-52b1-46ea-aabe-ddfa1d213c7d'
p266
(dp267
g79
g80
sg81
(dp268
g62
g266
sg63
(dp269
g65
S'RemoveProfile'
p270
sS'Identifier'
p271
S'com.intrepidusgroup.djs.test.simple'
p272
ssg71
F1472557807.454567
ssg124
g44
(g45
g46
(dp273
S'Status'
p274
S'Acknowledged'
p275
sS'CommandUUID'
p276
S'65c1b19c-52b1-46ea-aabe-ddfa1d213c7d'
p277
sS'UDID'
p278
S'a0fa6331afb21c20163b4e784710aced8238df71'
p279
stRp280
sg174
I6
ssS'3f847a31-689d-48be-8ccb-b63de3c12df0'
p281
(dp282
g79
g80
sg81
g61
sg124
g44
(g45
g46
(dp283
S'Status'
p284
S'Acknowledged'
p285
sS'CommandUUID'
p286
S'3f847a31-689d-48be-8ccb-b63de3c12df0'
p287
sS'UDID'
p288
S'a0fa6331afb21c20163b4e784710aced8238df71'
p289
stRp290
sg174
I5
ssS'c2476c7a-ebd4-48d9-af07-36f622a9708b'
p291
(dp292
g79
S'danger'
p293
sg81
g61
sg124
(dp294
S'Status'
p295
S'TimeoutError'
p296
ssg174
I4
ssS'afbdfbf5-7da2-4278-8c50-60aa54c707ca'
p297
(dp298
g79
g80
sg81
g268
sg124
g44
(g45
g46
(dp299
S'Status'
p300
S'Acknowledged'
p301
sS'CommandUUID'
p302
S'afbdfbf5-7da2-4278-8c50-60aa54c707ca'
p303
sS'UDID'
p304
S'a0fa6331afb21c20163b4e784710aced8238df71'
p305
stRp306
sg174
I3
ssS'764a16ad-f690-4c24-b7ad-184df261b454'
p307
(dp308
g216
S'danger'
p309
sg218
g219
sg231
(dp310
S'Status'
p311
S'TimeoutError'
p312
ssg240
I15
ssS'b23ba121-3a93-42a7-aef1-8a1801d784c1'
p313
(dp314
S'status'
p315
S'success'
p316
sS'cmd'
p317
(dp318
S'CommandUUID'
p319
g313
sS'Command'
p320
(dp321
S'RequestType'
p322
S'InstallProfile'
p323
sS'Payload'
p324
(iplistlib
Data
p325
(dp326
g40
S'<?xml version="1.0" encoding="UTF-8"?>\n<!DOCTYPE plist PUBLIC "-//Apple//DTD PLIST 1.0//EN" "http://www.apple.com/DTDs/PropertyList-1.0.dtd">\n<plist version="1.0">\n<dict>\n\t<key>PayloadContent</key>\n\t<array>\n\t\t<dict>\n\t\t\t<key>PayloadDescription</key>\n\t\t\t<string>Configures device restrictions.</string>\n\t\t\t<key>PayloadDisplayName</key>\n\t\t\t<string>Restrictions</string>\n\t\t\t<key>PayloadIdentifier</key>\n\t\t\t<string>com.intrepidusgroup.djs.test.simple.restrictions</string>\n\t\t\t<key>PayloadOrganization</key>\n\t\t\t<string></string>\n\t\t\t<key>PayloadType</key>\n\t\t\t<string>com.apple.applicationaccess</string>\n\t\t\t<key>PayloadUUID</key>\n\t\t\t<string>77D2FFB1-C010-4220-A3D9-BFE4B3EF99FD</string>\n\t\t\t<key>PayloadVersion</key>\n\t\t\t<integer>1</integer>\n\t\t\t<key>allowAddingGameCenterFriends</key>\n\t\t\t<true/>\n\t\t\t<key>allowAppInstallation</key>\n\t\t\t<true/>\n\t\t\t<key>allowCamera</key>\n\t\t\t<true/>\n\t\t\t<key>allowExplicitContent</key>\n\t\t\t<true/>\n\t\t\t<key>allowGlobalBackgroundFetchWhenRoaming</key>\n\t\t\t<true/>\n\t\t\t<key>allowInAppPurchases</key>\n\t\t\t<true/>\n\t\t\t<key>allowMultiplayerGaming</key>\n\t\t\t<true/>\n\t\t\t<key>allowSafari</key>\n\t\t\t<true/>\n\t\t\t<key>allowScreenShot</key>\n\t\t\t<false/>\n\t\t\t<key>allowVideoConferencing</key>\n\t\t\t<true/>\n\t\t\t<key>allowVoiceDialing</key>\n\t\t\t<true/>\n\t\t\t<key>allowYouTube</key>\n\t\t\t<true/>\n\t\t\t<key>allowiTunes</key>\n\t\t\t<true/>\n\t\t\t<key>forceEncryptedBackup</key>\n\t\t\t<false/>\n\t\t\t<key>ratingApps</key>\n\t\t\t<integer>0</integer>\n\t\t\t<key>ratingMovies</key>\n\t\t\t<integer>1000</integer>\n\t\t\t<key>ratingRegion</key>\n\t\t\t<string>us</string>\n\t\t\t<key>ratingTVShows</key>\n\t\t\t<integer>1000</integer>\n\t\t</dict>\n\t</array>\n\t<key>PayloadDescription</key>\n\t<string>Very simple profile to test restrictions.</string>\n\t<key>PayloadDisplayName</key>\n\t<string>Very Simple Restriction Test</string>\n\t<key>PayloadIdentifier</key>\n\t<string>com.intrepidusgroup.djs.test.simple</string>\n\t<key>PayloadOrganization</key>\n\t<string></string>\n\t<key>PayloadRemovalDisallowed</key>\n\t<false/>\n\t<key>PayloadType</key>\n\t<string>Configuration</string>\n\t<key>PayloadUUID</key>\n\t<string>2D9490F4-E890-4B37-9062-7095FEF0E482</string>\n\t<key>PayloadVersion</key>\n\t<integer>1</integer>\n</dict>\n</plist>\n'
p327
sbssS'TimeStamp'
p328
F1472558531.1734149
ssS'response'
p329
g44
(g45
g46
(dp330
S'Status'
p331
S'Acknowledged'
p332
sS'CommandUUID'
p333
S'b23ba121-3a93-42a7-aef1-8a1801d784c1'
p334
sS'UDID'
p335
S'a0fa6331afb21c20163b4e784710aced8238df71'
p336
stRp337
sS'order'
p338
I9
ssS'3e058a01-01e1-47f8-9836-5c29c3a77fbb'
p339
(dp340
g79
g80
sg81
g61
sg124
g44
(g45
g46
(dp341
S'Status'
p342
S'Acknowledged'
p343
sS'CommandUUID'
p344
S'3e058a01-01e1-47f8-9836-5c29c3a77fbb'
p345
sS'UDID'
p346
S'a0fa6331afb21c20163b4e784710aced8238df71'
p347
stRp348
sg174
I2
ssS'af92103b-f639-45d2-9bda-9159f6cc1746'
p349
(dp350
g315
S'danger'
p351
sg317
(dp352
S'CommandUUID'
p353
g349
sS'Command'
p354
(dp355
S'RequestType'
p356
S'InstallProfile'
p357
sS'Payload'
p358
(iplistlib
Data
p359
(dp360
g40
S'<?xml version="1.0" encoding="UTF-8"?>\n<!DOCTYPE plist PUBLIC "-//Apple//DTD PLIST 1.0//EN" "http://www.apple.com/DTDs/PropertyList-1.0.dtd">\n<plist version="1.0">\n<dict>\n\t<key>PayloadContent</key>\n\t<array>\n\t\t<dict>\n\t\t\t<key>PayloadDescription</key>\n\t\t\t<string>Configures device restrictions.</string>\n\t\t\t<key>PayloadDisplayName</key>\n\t\t\t<string>Restrictions</string>\n\t\t\t<key>PayloadIdentifier</key>\n\t\t\t<string>com.intrepidusgroup.djs.test.simple.restrictions</string>\n\t\t\t<key>PayloadOrganization</key>\n\t\t\t<string></string>\n\t\t\t<key>PayloadType</key>\n\t\t\t<string>com.apple.applicationaccess</string>\n\t\t\t<key>PayloadUUID</key>\n\t\t\t<string>77D2FFB1-C010-4220-A3D9-BFE4B3EF99FD</string>\n\t\t\t<key>PayloadVersion</key>\n\t\t\t<integer>1</integer>\n\t\t\t<key>allowAddingGameCenterFriends</key>\n\t\t\t<true/>\n\t\t\t<key>allowAppInstallation</key>\n\t\t\t<true/>\n\t\t\t<key>allowCamera</key>\n\t\t\t<true/>\n\t\t\t<key>allowExplicitContent</key>\n\t\t\t<true/>\n\t\t\t<key>allowGlobalBackgroundFetchWhenRoaming</key>\n\t\t\t<true/>\n\t\t\t<key>allowInAppPurchases</key>\n\t\t\t<true/>\n\t\t\t<key>allowMultiplayerGaming</key>\n\t\t\t<true/>\n\t\t\t<key>allowSafari</key>\n\t\t\t<true/>\n\t\t\t<key>allowScreenShot</key>\n\t\t\t<false/>\n\t\t\t<key>allowVideoConferencing</key>\n\t\t\t<true/>\n\t\t\t<key>allowVoiceDialing</key>\n\t\t\t<true/>\n\t\t\t<key>allowYouTube</key>\n\t\t\t<true/>\n\t\t\t<key>allowiTunes</key>\n\t\t\t<true/>\n\t\t\t<key>forceEncryptedBackup</key>\n\t\t\t<false/>\n\t\t\t<key>ratingApps</key>\n\t\t\t<integer>0</integer>\n\t\t\t<key>ratingMovies</key>\n\t\t\t<integer>1000</integer>\n\t\t\t<key>ratingRegion</key>\n\t\t\t<string>us</string>\n\t\t\t<key>ratingTVShows</key>\n\t\t\t<integer>1000</integer>\n\t\t</dict>\n\t</array>\n\t<key>PayloadDescription</key>\n\t<string>Very simple profile to test restrictions.</string>\n\t<key>PayloadDisplayName</key>\n\t<string>Very Simple Restriction Test</string>\n\t<key>PayloadIdentifier</key>\n\t<string>com.intrepidusgroup.djs.test.simple</string>\n\t<key>PayloadOrganization</key>\n\t<string></string>\n\t<key>PayloadRemovalDisallowed</key>\n\t<false/>\n\t<key>PayloadType</key>\n\t<string>Configuration</string>\n\t<key>PayloadUUID</key>\n\t<string>2D9490F4-E890-4B37-9062-7095FEF0E482</string>\n\t<key>PayloadVersion</key>\n\t<integer>1</integer>\n</dict>\n</plist>\n'
p361
sbssS'TimeStamp'
p362
F1472558024.5707591
ssg329
(dp363
S'Status'
p364
S'TimeoutError'
p365
ssg338
I8
ssg221
(dp366
g216
g309
sg218
g219
sg231
(dp367
g311
g312
ssg240
I16
ssS'416b4a3f-a396-48ef-8e7b-e30d8a51814d'
p368
(dp369
g216
g217
sg218
g219
sg231
g44
(g45
g46
(dp370
S'Status'
p371
S'Acknowledged'
p372
sS'CommandUUID'
p373
S'416b4a3f-a396-48ef-8e7b-e30d8a51814d'
p374
sS'UDID'
p375
S'a0fa6331afb21c20163b4e784710aced8238df71'
p376
stRp377
sg240
I11
sssS'owner'
p378
g24
sS'model'
p379
g145
sS'GEO'
p380
S"42*21'29''N 71*03'49''W"
p381
sS'deviceToken'
p382
S'p\xd0F*o(\x03\x18\xb2\na\xa4\x94H\x9dk \xf5/\xee\xa2Cn@\xcb\xfe\xff\xe83\xcdU,'
p383
sbs.